target datalayout = "e-m:e-p270:32:32-p271:32:32-p272:64:64-i64:64-i128:128-f80:128-n8:16:32:64-S128"
target triple = "x86_64-pc-linux-gnu"

%struct.evhttp_request = type { %struct.anon.8, ptr, i32, ptr, ptr, ptr, i16, ptr, i32, i32, i64, i64, ptr, ptr, i8, i8, i32, ptr, ptr, i64, i8, ptr, ptr, ptr, ptr, ptr, ptr, ptr, ptr }
%struct.anon.8 = type { ptr, ptr }
%struct.evkeyvalq = type { ptr, ptr }

@.str.31 = private unnamed_addr constant [11 x i8] c"%s: calloc\00", align 1
@__func__.evhttp_request_new = private unnamed_addr constant [19 x i8] c"evhttp_request_new\00", align 1
@.str.32 = private unnamed_addr constant [17 x i8] c"%s: evbuffer_new\00", align 1

; Function Attrs: nounwind uwtable
define ptr @evhttp_request_new(ptr noundef %0, ptr noundef %1) #0 {
  %3 = alloca ptr, align 8
  %4 = alloca ptr, align 8
  %5 = alloca ptr, align 8
  %6 = alloca ptr, align 8
  %7 = alloca i32, align 4
  store ptr %0, ptr %4, align 8
  store ptr %1, ptr %5, align 8
  call void @llvm.lifetime.start.p0(i64 8, ptr %6) #11
  store ptr null, ptr %6, align 8
  %8 = call ptr @event_mm_calloc_(i64 noundef 1, i64 noundef 216)
  store ptr %8, ptr %6, align 8
  %9 = icmp eq ptr %8, null
  br i1 %9, label %10, label %11

10:                                               ; preds = %2
  call void (ptr, ...) @event_warn(ptr noundef @.str.31, ptr noundef @__func__.evhttp_request_new)
  br label %85

11:                                               ; preds = %2
  %12 = load ptr, ptr %6, align 8
  %13 = getelementptr inbounds nuw %struct.evhttp_request, ptr %12, i32 0, i32 10
  store i64 0, ptr %13, align 8
  %14 = load ptr, ptr %6, align 8
  %15 = getelementptr inbounds nuw %struct.evhttp_request, ptr %14, i32 0, i32 11
  store i64 0, ptr %15, align 8
  %16 = load ptr, ptr %6, align 8
  %17 = getelementptr inbounds nuw %struct.evhttp_request, ptr %16, i32 0, i32 8
  store i32 1, ptr %17, align 8
  %18 = call ptr @event_mm_calloc_(i64 noundef 1, i64 noundef 16)
  %19 = load ptr, ptr %6, align 8
  %20 = getelementptr inbounds nuw %struct.evhttp_request, ptr %19, i32 0, i32 3
  store ptr %18, ptr %20, align 8
  %21 = load ptr, ptr %6, align 8
  %22 = getelementptr inbounds nuw %struct.evhttp_request, ptr %21, i32 0, i32 3
  %23 = load ptr, ptr %22, align 8
  %24 = icmp eq ptr %23, null
  br i1 %24, label %25, label %26

25:                                               ; preds = %11
  call void (ptr, ...) @event_warn(ptr noundef @.str.31, ptr noundef @__func__.evhttp_request_new)
  br label %85

26:                                               ; preds = %11
  br label %27

27:                                               ; preds = %26
  %28 = load ptr, ptr %6, align 8
  %29 = getelementptr inbounds nuw %struct.evhttp_request, ptr %28, i32 0, i32 3
  %30 = load ptr, ptr %29, align 8
  %31 = getelementptr inbounds nuw %struct.evkeyvalq, ptr %30, i32 0, i32 0
  store ptr null, ptr %31, align 8
  %32 = load ptr, ptr %6, align 8
  %33 = getelementptr inbounds nuw %struct.evhttp_request, ptr %32, i32 0, i32 3
  %34 = load ptr, ptr %33, align 8
  %35 = getelementptr inbounds nuw %struct.evkeyvalq, ptr %34, i32 0, i32 0
  %36 = load ptr, ptr %6, align 8
  %37 = getelementptr inbounds nuw %struct.evhttp_request, ptr %36, i32 0, i32 3
  %38 = load ptr, ptr %37, align 8
  %39 = getelementptr inbounds nuw %struct.evkeyvalq, ptr %38, i32 0, i32 1
  store ptr %35, ptr %39, align 8
  br label %40

40:                                               ; preds = %27
  br label %41

41:                                               ; preds = %40
  %42 = call ptr @event_mm_calloc_(i64 noundef 1, i64 noundef 16)
  %43 = load ptr, ptr %6, align 8
  %44 = getelementptr inbounds nuw %struct.evhttp_request, ptr %43, i32 0, i32 4
  store ptr %42, ptr %44, align 8
  %45 = load ptr, ptr %6, align 8
  %46 = getelementptr inbounds nuw %struct.evhttp_request, ptr %45, i32 0, i32 4
  %47 = load ptr, ptr %46, align 8
  %48 = icmp eq ptr %47, null
  br i1 %48, label %49, label %50

49:                                               ; preds = %41
  call void (ptr, ...) @event_warn(ptr noundef @.str.31, ptr noundef @__func__.evhttp_request_new)
  br label %85

50:                                               ; preds = %41
  br label %51

51:                                               ; preds = %50
  %52 = load ptr, ptr %6, align 8
  %53 = getelementptr inbounds nuw %struct.evhttp_request, ptr %52, i32 0, i32 4
  %54 = load ptr, ptr %53, align 8
  %55 = getelementptr inbounds nuw %struct.evkeyvalq, ptr %54, i32 0, i32 0
  store ptr null, ptr %55, align 8
  %56 = load ptr, ptr %6, align 8
  %57 = getelementptr inbounds nuw %struct.evhttp_request, ptr %56, i32 0, i32 4
  %58 = load ptr, ptr %57, align 8
  %59 = getelementptr inbounds nuw %struct.evkeyvalq, ptr %58, i32 0, i32 0
  %60 = load ptr, ptr %6, align 8
  %61 = getelementptr inbounds nuw %struct.evhttp_request, ptr %60, i32 0, i32 4
  %62 = load ptr, ptr %61, align 8
  %63 = getelementptr inbounds nuw %struct.evkeyvalq, ptr %62, i32 0, i32 1
  store ptr %59, ptr %63, align 8
  br label %64

64:                                               ; preds = %51
  br label %65

65:                                               ; preds = %64
  %66 = call ptr @evbuffer_new()
  %67 = load ptr, ptr %6, align 8
  %68 = getelementptr inbounds nuw %struct.evhttp_request, ptr %67, i32 0, i32 18
  store ptr %66, ptr %68, align 8
  %69 = icmp eq ptr %66, null
  br i1 %69, label %70, label %71

70:                                               ; preds = %65
  call void (ptr, ...) @event_warn(ptr noundef @.str.32, ptr noundef @__func__.evhttp_request_new)
  br label %85

71:                                               ; preds = %65
  %72 = call ptr @evbuffer_new()
  %73 = load ptr, ptr %6, align 8
  %74 = getelementptr inbounds nuw %struct.evhttp_request, ptr %73, i32 0, i32 21
  store ptr %72, ptr %74, align 8
  %75 = icmp eq ptr %72, null
  br i1 %75, label %76, label %77

76:                                               ; preds = %71
  call void (ptr, ...) @event_warn(ptr noundef @.str.32, ptr noundef @__func__.evhttp_request_new)
  br label %85

77:                                               ; preds = %71
  %78 = load ptr, ptr %4, align 8
  %79 = load ptr, ptr %6, align 8
  %80 = getelementptr inbounds nuw %struct.evhttp_request, ptr %79, i32 0, i32 22
  store ptr %78, ptr %80, align 8
  %81 = load ptr, ptr %5, align 8
  %82 = load ptr, ptr %6, align 8
  %83 = getelementptr inbounds nuw %struct.evhttp_request, ptr %82, i32 0, i32 23
  store ptr %81, ptr %83, align 8
  %84 = load ptr, ptr %6, align 8
  store ptr %84, ptr %3, align 8
  store i32 1, ptr %7, align 4
  br label %91

85:                                               ; preds = %76, %70, %49, %25, %10
  %86 = load ptr, ptr %6, align 8
  %87 = icmp ne ptr %86, null
  br i1 %87, label %88, label %90

88:                                               ; preds = %85
  %89 = load ptr, ptr %6, align 8
  call void @evhttp_request_free(ptr noundef %89)
  br label %90

90:                                               ; preds = %88, %85
  store ptr null, ptr %3, align 8
  store i32 1, ptr %7, align 4
  br label %91

91:                                               ; preds = %90, %77
  call void @llvm.lifetime.end.p0(i64 8, ptr %6) #11
  %92 = load ptr, ptr %3, align 8
  ret ptr %92
}