; Function Attrs: nounwind uwtable
define ptr @evhttp_request_new(ptr noundef %0, ptr noundef %1) local_unnamed_addr #0 {
  %3 = tail call ptr @event_mm_calloc_(i64 noundef 1, i64 noundef 216) #18
  %4 = icmp eq ptr %3, null
  br i1 %4, label %30, label %5

5:                                                ; preds = %2
  %6 = getelementptr inbounds nuw i8, ptr %3, i64 80
  %7 = getelementptr inbounds nuw i8, ptr %3, i64 72
  tail call void @llvm.memset.p0.i64(ptr noundef nonnull align 8 dereferenceable(16) %6, i8 0, i64 16, i1 false)
  store i32 1, ptr %7, align 8
  %8 = tail call ptr @event_mm_calloc_(i64 noundef 1, i64 noundef 16) #18
  %9 = getelementptr inbounds nuw i8, ptr %3, i64 32
  store ptr %8, ptr %9, align 8
  %10 = icmp eq ptr %8, null
  br i1 %10, label %31, label %11

11:                                               ; preds = %5
  store ptr null, ptr %8, align 8
  %12 = load ptr, ptr %9, align 8
  %13 = getelementptr inbounds nuw i8, ptr %12, i64 8
  store ptr %12, ptr %13, align 8
  %14 = tail call ptr @event_mm_calloc_(i64 noundef 1, i64 noundef 16) #18
  %15 = getelementptr inbounds nuw i8, ptr %3, i64 40
  store ptr %14, ptr %15, align 8
  %16 = icmp eq ptr %14, null
  br i1 %16, label %31, label %17

17:                                               ; preds = %11
  store ptr null, ptr %14, align 8
  %18 = load ptr, ptr %15, align 8
  %19 = getelementptr inbounds nuw i8, ptr %18, i64 8
  store ptr %18, ptr %19, align 8
  %20 = tail call ptr @evbuffer_new() #18
  %21 = getelementptr inbounds nuw i8, ptr %3, i64 128
  store ptr %20, ptr %21, align 8
  %22 = icmp eq ptr %20, null
  br i1 %22, label %31, label %23

23:                                               ; preds = %17
  %24 = tail call ptr @evbuffer_new() #18
  %25 = getelementptr inbounds nuw i8, ptr %3, i64 152
  store ptr %24, ptr %25, align 8
  %26 = icmp eq ptr %24, null
  br i1 %26, label %31, label %27

27:                                               ; preds = %23
  %28 = getelementptr inbounds nuw i8, ptr %3, i64 160
  store ptr %0, ptr %28, align 8
  %29 = getelementptr inbounds nuw i8, ptr %3, i64 168
  store ptr %1, ptr %29, align 8
  br label %32

30:                                               ; preds = %2
  tail call void (ptr, ...) @event_warn(ptr noundef nonnull @.str.31, ptr noundef nonnull @__func__.evhttp_request_new) #18
  br label %32

31:                                               ; preds = %23, %17, %11, %5
  %.str.32.sink = phi ptr [ @.str.31, %5 ], [ @.str.31, %11 ], [ @.str.32, %17 ], [ @.str.32, %23 ]
  tail call void (ptr, ...) @event_warn(ptr noundef nonnull %.str.32.sink, ptr noundef nonnull @__func__.evhttp_request_new) #18
  tail call void @evhttp_request_free(ptr noundef nonnull %3)
  br label %32

32:                                               ; preds = %30, %31, %27
  %.0 = phi ptr [ %3, %27 ], [ null, %31 ], [ null, %30 ]
  ret ptr %.0
}